target datalayout = "e-m:e-p270:32:32-p271:32:32-p272:64:64-i64:64-i128:128-f80:128-n8:16:32:64-S128"
target triple = "x86_64-pc-linux-gnu"

%struct.ColorContext = type { ptr }
%struct.SwsFilterDescriptor = type { ptr, ptr, i32, ptr, ptr }
%struct.SwsSlice = type { i32, i32, i32, i32, i32, i32, [4 x %struct.SwsPlane] }
%struct.SwsPlane = type { i32, i32, i32, ptr, ptr }
%struct.SwsInternal = type { %struct.SwsContext, ptr, ptr, ptr, ptr, i32, [2 x ptr], i32, i32, ptr, i32, i32, i32, i32, i32, i32, i32, i32, i32, i32, i32, i32, i32, i32, i32, i32, i32, i32, ptr, ptr, %struct.RangeList, [3 x ptr], [2 x [4 x i32]], [2 x [4 x ptr]], i32, double, i32, ptr, ptr, i32, [2 x i32], i32, ptr, ptr, [256 x i32], [256 x i32], [256 x float], i32, i32, ptr, i32, ptr, ptr, ptr, ptr, ptr, ptr, ptr, ptr, i32, i32, i32, i32, i32, i32, ptr, ptr, i32, i32, i32, ptr, [8 x i8], [1280 x i32], [1280 x ptr], [1280 x ptr], [1280 x ptr], [176 x i32], [4 x ptr], i32, i32, i32, [4 x i32], [4 x i32], i32, i32, i32, i32, i32, i32, i32, i32, i32, i32, i64, i64, i64, i64, i64, i64, i64, i64, i64, i64, i64, [1024 x i32], [1024 x i32], i32, i64, i64, i64, i64, i64, [1024 x i32], i64, i64, [8 x i16], [8 x i32], ptr, ptr, i32, ptr, ptr, ptr, ptr, [3 x [4 x i16]], [3 x [4 x i16]], ptr, ptr, ptr, ptr, ptr, ptr, ptr, ptr, ptr, ptr, ptr, ptr, ptr, ptr, ptr, ptr, ptr, ptr, ptr, ptr, i32, i32, i64, i64, i32, ptr, i32, ptr, i32, i32, i32, i32, i32, ptr }
%struct.SwsContext = type { ptr, ptr, i32, [2 x double], i32, i32, i32, i32, i32, i32, i32, i32, i32, i32, i32, i32, i32, i32, i32, i32, i32 }
%struct.RangeList = type { ptr, i32, i32 }

; Function Attrs: nounwind uwtable
define internal i32 @lum_convert(ptr noundef %0, ptr noundef %1, i32 noundef %2, i32 noundef %3) #0 {
  %5 = alloca ptr, align 8
  %6 = alloca ptr, align 8
  %7 = alloca i32, align 4
  %8 = alloca i32, align 4
  %9 = alloca i32, align 4
  %10 = alloca ptr, align 8
  %11 = alloca ptr, align 8
  %12 = alloca i32, align 4
  %13 = alloca i32, align 4
  %14 = alloca i32, align 4
  %15 = alloca [4 x ptr], align 16
  %16 = alloca ptr, align 8
  store ptr %0, ptr %5, align 8, !tbaa !33
  store ptr %1, ptr %6, align 8, !tbaa !4
  store i32 %2, ptr %7, align 4, !tbaa !26
  store i32 %3, ptr %8, align 4, !tbaa !26
  call void @llvm.lifetime.start.p0(i64 4, ptr %9) #6
  %17 = load ptr, ptr %6, align 8, !tbaa !4
  %18 = getelementptr inbounds nuw %struct.SwsFilterDescriptor, ptr %17, i32 0, i32 0
  %19 = load ptr, ptr %18, align 8, !tbaa !23
  %20 = getelementptr inbounds nuw %struct.SwsSlice, ptr %19, i32 0, i32 0
  %21 = load i32, ptr %20, align 8, !tbaa !35
  store i32 %21, ptr %9, align 4, !tbaa !26
  call void @llvm.lifetime.start.p0(i64 8, ptr %10) #6
  %22 = load ptr, ptr %6, align 8, !tbaa !4
  %23 = getelementptr inbounds nuw %struct.SwsFilterDescriptor, ptr %22, i32 0, i32 3
  %24 = load ptr, ptr %23, align 8, !tbaa !17
  store ptr %24, ptr %10, align 8, !tbaa !13
  call void @llvm.lifetime.start.p0(i64 8, ptr %11) #6
  %25 = load ptr, ptr %10, align 8, !tbaa !13
  %26 = getelementptr inbounds nuw %struct.ColorContext, ptr %25, i32 0, i32 0
  %27 = load ptr, ptr %26, align 8, !tbaa !15
  store ptr %27, ptr %11, align 8, !tbaa !11
  call void @llvm.lifetime.start.p0(i64 4, ptr %12) #6
  %28 = load i32, ptr %7, align 4, !tbaa !26
  %29 = load ptr, ptr %6, align 8, !tbaa !4
  %30 = getelementptr inbounds nuw %struct.SwsFilterDescriptor, ptr %29, i32 0, i32 1
  %31 = load ptr, ptr %30, align 8, !tbaa !24
  %32 = getelementptr inbounds nuw %struct.SwsSlice, ptr %31, i32 0, i32 6
  %33 = getelementptr inbounds [4 x %struct.SwsPlane], ptr %32, i64 0, i64 0
  %34 = getelementptr inbounds nuw %struct.SwsPlane, ptr %33, i32 0, i32 1
  store i32 %28, ptr %34, align 4, !tbaa !36
  %35 = load i32, ptr %8, align 4, !tbaa !26
  %36 = load ptr, ptr %6, align 8, !tbaa !4
  %37 = getelementptr inbounds nuw %struct.SwsFilterDescriptor, ptr %36, i32 0, i32 1
  %38 = load ptr, ptr %37, align 8, !tbaa !24
  %39 = getelementptr inbounds nuw %struct.SwsSlice, ptr %38, i32 0, i32 6
  %40 = getelementptr inbounds [4 x %struct.SwsPlane], ptr %39, i64 0, i64 0
  %41 = getelementptr inbounds nuw %struct.SwsPlane, ptr %40, i32 0, i32 2
  store i32 %35, ptr %41, align 8, !tbaa !40
  %42 = load i32, ptr %7, align 4, !tbaa !26
  %43 = load ptr, ptr %6, align 8, !tbaa !4
  %44 = getelementptr inbounds nuw %struct.SwsFilterDescriptor, ptr %43, i32 0, i32 1
  %45 = load ptr, ptr %44, align 8, !tbaa !24
  %46 = getelementptr inbounds nuw %struct.SwsSlice, ptr %45, i32 0, i32 6
  %47 = getelementptr inbounds [4 x %struct.SwsPlane], ptr %46, i64 0, i64 3
  %48 = getelementptr inbounds nuw %struct.SwsPlane, ptr %47, i32 0, i32 1
  store i32 %42, ptr %48, align 4, !tbaa !36
  %49 = load i32, ptr %8, align 4, !tbaa !26
  %50 = load ptr, ptr %6, align 8, !tbaa !4
  %51 = getelementptr inbounds nuw %struct.SwsFilterDescriptor, ptr %50, i32 0, i32 1
  %52 = load ptr, ptr %51, align 8, !tbaa !24
  %53 = getelementptr inbounds nuw %struct.SwsSlice, ptr %52, i32 0, i32 6
  %54 = getelementptr inbounds [4 x %struct.SwsPlane], ptr %53, i64 0, i64 3
  %55 = getelementptr inbounds nuw %struct.SwsPlane, ptr %54, i32 0, i32 2
  store i32 %49, ptr %55, align 8, !tbaa !40
  store i32 0, ptr %12, align 4, !tbaa !26
  br label %56

56:                                               ; preds = %241, %4
  %57 = load i32, ptr %12, align 4, !tbaa !26
  %58 = load i32, ptr %8, align 4, !tbaa !26
  %59 = icmp slt i32 %57, %58
  br i1 %59, label %60, label %244

60:                                               ; preds = %56
  call void @llvm.lifetime.start.p0(i64 4, ptr %13) #6
  %61 = load i32, ptr %7, align 4, !tbaa !26
  %62 = load i32, ptr %12, align 4, !tbaa !26
  %63 = add nsw i32 %61, %62
  %64 = load ptr, ptr %6, align 8, !tbaa !4
  %65 = getelementptr inbounds nuw %struct.SwsFilterDescriptor, ptr %64, i32 0, i32 0
  %66 = load ptr, ptr %65, align 8, !tbaa !23
  %67 = getelementptr inbounds nuw %struct.SwsSlice, ptr %66, i32 0, i32 6
  %68 = getelementptr inbounds [4 x %struct.SwsPlane], ptr %67, i64 0, i64 0
  %69 = getelementptr inbounds nuw %struct.SwsPlane, ptr %68, i32 0, i32 1
  %70 = load i32, ptr %69, align 4, !tbaa !36
  %71 = sub nsw i32 %63, %70
  store i32 %71, ptr %13, align 4, !tbaa !26
  call void @llvm.lifetime.start.p0(i64 4, ptr %14) #6
  %72 = load i32, ptr %7, align 4, !tbaa !26
  %73 = load i32, ptr %12, align 4, !tbaa !26
  %74 = add nsw i32 %72, %73
  %75 = load ptr, ptr %6, align 8, !tbaa !4
  %76 = getelementptr inbounds nuw %struct.SwsFilterDescriptor, ptr %75, i32 0, i32 0
  %77 = load ptr, ptr %76, align 8, !tbaa !23
  %78 = getelementptr inbounds nuw %struct.SwsSlice, ptr %77, i32 0, i32 2
  %79 = load i32, ptr %78, align 8, !tbaa !41
  %80 = ashr i32 %74, %79
  %81 = load ptr, ptr %6, align 8, !tbaa !4
  %82 = getelementptr inbounds nuw %struct.SwsFilterDescriptor, ptr %81, i32 0, i32 0
  %83 = load ptr, ptr %82, align 8, !tbaa !23
  %84 = getelementptr inbounds nuw %struct.SwsSlice, ptr %83, i32 0, i32 6
  %85 = getelementptr inbounds [4 x %struct.SwsPlane], ptr %84, i64 0, i64 1
  %86 = getelementptr inbounds nuw %struct.SwsPlane, ptr %85, i32 0, i32 1
  %87 = load i32, ptr %86, align 4, !tbaa !36
  %88 = sub nsw i32 %80, %87
  store i32 %88, ptr %14, align 4, !tbaa !26
  call void @llvm.lifetime.start.p0(i64 32, ptr %15) #6
  %89 = load ptr, ptr %6, align 8, !tbaa !4
  %90 = getelementptr inbounds nuw %struct.SwsFilterDescriptor, ptr %89, i32 0, i32 0
  %91 = load ptr, ptr %90, align 8, !tbaa !23
  %92 = getelementptr inbounds nuw %struct.SwsSlice, ptr %91, i32 0, i32 6
  %93 = getelementptr inbounds [4 x %struct.SwsPlane], ptr %92, i64 0, i64 0
  %94 = getelementptr inbounds nuw %struct.SwsPlane, ptr %93, i32 0, i32 3
  %95 = load ptr, ptr %94, align 8, !tbaa !42
  %96 = load i32, ptr %13, align 4, !tbaa !26
  %97 = sext i32 %96 to i64
  %98 = getelementptr inbounds ptr, ptr %95, i64 %97
  %99 = load ptr, ptr %98, align 8, !tbaa !43
  store ptr %99, ptr %15, align 8, !tbaa !43
  %100 = getelementptr inbounds ptr, ptr %15, i64 1
  %101 = load ptr, ptr %6, align 8, !tbaa !4
  %102 = getelementptr inbounds nuw %struct.SwsFilterDescriptor, ptr %101, i32 0, i32 0
  %103 = load ptr, ptr %102, align 8, !tbaa !23
  %104 = getelementptr inbounds nuw %struct.SwsSlice, ptr %103, i32 0, i32 6
  %105 = getelementptr inbounds [4 x %struct.SwsPlane], ptr %104, i64 0, i64 1
  %106 = getelementptr inbounds nuw %struct.SwsPlane, ptr %105, i32 0, i32 3
  %107 = load ptr, ptr %106, align 8, !tbaa !42
  %108 = load i32, ptr %14, align 4, !tbaa !26
  %109 = sext i32 %108 to i64
  %110 = getelementptr inbounds ptr, ptr %107, i64 %109
  %111 = load ptr, ptr %110, align 8, !tbaa !43
  store ptr %111, ptr %100, align 8, !tbaa !43
  %112 = getelementptr inbounds ptr, ptr %15, i64 2
  %113 = load ptr, ptr %6, align 8, !tbaa !4
  %114 = getelementptr inbounds nuw %struct.SwsFilterDescriptor, ptr %113, i32 0, i32 0
  %115 = load ptr, ptr %114, align 8, !tbaa !23
  %116 = getelementptr inbounds nuw %struct.SwsSlice, ptr %115, i32 0, i32 6
  %117 = getelementptr inbounds [4 x %struct.SwsPlane], ptr %116, i64 0, i64 2
  %118 = getelementptr inbounds nuw %struct.SwsPlane, ptr %117, i32 0, i32 3
  %119 = load ptr, ptr %118, align 8, !tbaa !42
  %120 = load i32, ptr %14, align 4, !tbaa !26
  %121 = sext i32 %120 to i64
  %122 = getelementptr inbounds ptr, ptr %119, i64 %121
  %123 = load ptr, ptr %122, align 8, !tbaa !43
  store ptr %123, ptr %112, align 8, !tbaa !43
  %124 = getelementptr inbounds ptr, ptr %15, i64 3
  %125 = load ptr, ptr %6, align 8, !tbaa !4
  %126 = getelementptr inbounds nuw %struct.SwsFilterDescriptor, ptr %125, i32 0, i32 0
  %127 = load ptr, ptr %126, align 8, !tbaa !23
  %128 = getelementptr inbounds nuw %struct.SwsSlice, ptr %127, i32 0, i32 6
  %129 = getelementptr inbounds [4 x %struct.SwsPlane], ptr %128, i64 0, i64 3
  %130 = getelementptr inbounds nuw %struct.SwsPlane, ptr %129, i32 0, i32 3
  %131 = load ptr, ptr %130, align 8, !tbaa !42
  %132 = load i32, ptr %13, align 4, !tbaa !26
  %133 = sext i32 %132 to i64
  %134 = getelementptr inbounds ptr, ptr %131, i64 %133
  %135 = load ptr, ptr %134, align 8, !tbaa !43
  store ptr %135, ptr %124, align 8, !tbaa !43
  call void @llvm.lifetime.start.p0(i64 8, ptr %16) #6
  %136 = load ptr, ptr %6, align 8, !tbaa !4
  %137 = getelementptr inbounds nuw %struct.SwsFilterDescriptor, ptr %136, i32 0, i32 1
  %138 = load ptr, ptr %137, align 8, !tbaa !24
  %139 = getelementptr inbounds nuw %struct.SwsSlice, ptr %138, i32 0, i32 6
  %140 = getelementptr inbounds [4 x %struct.SwsPlane], ptr %139, i64 0, i64 0
  %141 = getelementptr inbounds nuw %struct.SwsPlane, ptr %140, i32 0, i32 3
  %142 = load ptr, ptr %141, align 8, !tbaa !42
  %143 = load i32, ptr %12, align 4, !tbaa !26
  %144 = sext i32 %143 to i64
  %145 = getelementptr inbounds ptr, ptr %142, i64 %144
  %146 = load ptr, ptr %145, align 8, !tbaa !43
  store ptr %146, ptr %16, align 8, !tbaa !43
  %147 = load ptr, ptr %5, align 8, !tbaa !33
  %148 = getelementptr inbounds nuw %struct.SwsInternal, ptr %147, i32 0, i32 134
  %149 = load ptr, ptr %148, align 8, !tbaa !44
  %150 = icmp ne ptr %149, null
  br i1 %150, label %151, label %167

151:                                              ; preds = %60
  %152 = load ptr, ptr %5, align 8, !tbaa !33
  %153 = getelementptr inbounds nuw %struct.SwsInternal, ptr %152, i32 0, i32 134
  %154 = load ptr, ptr %153, align 8, !tbaa !44
  %155 = load ptr, ptr %16, align 8, !tbaa !43
  %156 = getelementptr inbounds [4 x ptr], ptr %15, i64 0, i64 0
  %157 = load ptr, ptr %156, align 16, !tbaa !43
  %158 = getelementptr inbounds [4 x ptr], ptr %15, i64 0, i64 1
  %159 = load ptr, ptr %158, align 8, !tbaa !43
  %160 = getelementptr inbounds [4 x ptr], ptr %15, i64 0, i64 2
  %161 = load ptr, ptr %160, align 16, !tbaa !43
  %162 = load i32, ptr %9, align 4, !tbaa !26
  %163 = load ptr, ptr %11, align 8, !tbaa !11
  %164 = load ptr, ptr %5, align 8, !tbaa !33
  %165 = getelementptr inbounds nuw %struct.SwsInternal, ptr %164, i32 0, i32 133
  %166 = load ptr, ptr %165, align 16, !tbaa !57
  call void %154(ptr noundef %155, ptr noundef %157, ptr noundef %159, ptr noundef %161, i32 noundef %162, ptr noundef %163, ptr noundef %166)
  br label %186

167:                                              ; preds = %60
  %168 = load ptr, ptr %5, align 8, !tbaa !33
  %169 = getelementptr inbounds nuw %struct.SwsInternal, ptr %168, i32 0, i32 137
  %170 = load ptr, ptr %169, align 16, !tbaa !58
  %171 = icmp ne ptr %170, null
  br i1 %171, label %172, label %185

172:                                              ; preds = %167
  %173 = load ptr, ptr %5, align 8, !tbaa !33
  %174 = getelementptr inbounds nuw %struct.SwsInternal, ptr %173, i32 0, i32 137
  %175 = load ptr, ptr %174, align 16, !tbaa !58
  %176 = load ptr, ptr %16, align 8, !tbaa !43
  %177 = getelementptr inbounds [4 x ptr], ptr %15, i64 0, i64 0
  %178 = load i32, ptr %9, align 4, !tbaa !26
  %179 = load ptr, ptr %5, align 8, !tbaa !33
  %180 = getelementptr inbounds nuw %struct.SwsInternal, ptr %179, i32 0, i32 76
  %181 = getelementptr inbounds [176 x i32], ptr %180, i64 0, i64 0
  %182 = load ptr, ptr %5, align 8, !tbaa !33
  %183 = getelementptr inbounds nuw %struct.SwsInternal, ptr %182, i32 0, i32 133
  %184 = load ptr, ptr %183, align 16, !tbaa !57
  call void %175(ptr noundef %176, ptr noundef %177, i32 noundef %178, ptr noundef %181, ptr noundef %184)
  br label %185

185:                                              ; preds = %172, %167
  br label %186

186:                                              ; preds = %185, %151
  %187 = load ptr, ptr %6, align 8, !tbaa !4
  %188 = getelementptr inbounds nuw %struct.SwsFilterDescriptor, ptr %187, i32 0, i32 2
  %189 = load i32, ptr %188, align 8, !tbaa !22
  %190 = icmp ne i32 %189, 0
  br i1 %190, label %191, label %240

191:                                              ; preds = %186
  %192 = load ptr, ptr %6, align 8, !tbaa !4
  %193 = getelementptr inbounds nuw %struct.SwsFilterDescriptor, ptr %192, i32 0, i32 1
  %194 = load ptr, ptr %193, align 8, !tbaa !24
  %195 = getelementptr inbounds nuw %struct.SwsSlice, ptr %194, i32 0, i32 6
  %196 = getelementptr inbounds [4 x %struct.SwsPlane], ptr %195, i64 0, i64 3
  %197 = getelementptr inbounds nuw %struct.SwsPlane, ptr %196, i32 0, i32 3
  %198 = load ptr, ptr %197, align 8, !tbaa !42
  %199 = load i32, ptr %12, align 4, !tbaa !26
  %200 = sext i32 %199 to i64
  %201 = getelementptr inbounds ptr, ptr %198, i64 %200
  %202 = load ptr, ptr %201, align 8, !tbaa !43
  store ptr %202, ptr %16, align 8, !tbaa !43
  %203 = load ptr, ptr %5, align 8, !tbaa !33
  %204 = getelementptr inbounds nuw %struct.SwsInternal, ptr %203, i32 0, i32 135
  %205 = load ptr, ptr %204, align 16, !tbaa !59
  %206 = icmp ne ptr %205, null
  br i1 %206, label %207, label %223

207:                                              ; preds = %191
  %208 = load ptr, ptr %5, align 8, !tbaa !33
  %209 = getelementptr inbounds nuw %struct.SwsInternal, ptr %208, i32 0, i32 135
  %210 = load ptr, ptr %209, align 16, !tbaa !59
  %211 = load ptr, ptr %16, align 8, !tbaa !43
  %212 = getelementptr inbounds [4 x ptr], ptr %15, i64 0, i64 3
  %213 = load ptr, ptr %212, align 8, !tbaa !43
  %214 = getelementptr inbounds [4 x ptr], ptr %15, i64 0, i64 1
  %215 = load ptr, ptr %214, align 8, !tbaa !43
  %216 = getelementptr inbounds [4 x ptr], ptr %15, i64 0, i64 2
  %217 = load ptr, ptr %216, align 16, !tbaa !43
  %218 = load i32, ptr %9, align 4, !tbaa !26
  %219 = load ptr, ptr %11, align 8, !tbaa !11
  %220 = load ptr, ptr %5, align 8, !tbaa !33
  %221 = getelementptr inbounds nuw %struct.SwsInternal, ptr %220, i32 0, i32 133
  %222 = load ptr, ptr %221, align 16, !tbaa !57
  call void %210(ptr noundef %211, ptr noundef %213, ptr noundef %215, ptr noundef %217, i32 noundef %218, ptr noundef %219, ptr noundef %222)
  br label %239

223:                                              ; preds = %191
  %224 = load ptr, ptr %5, align 8, !tbaa !33
  %225 = getelementptr inbounds nuw %struct.SwsInternal, ptr %224, i32 0, i32 138
  %226 = load ptr, ptr %225, align 8, !tbaa !60
  %227 = icmp ne ptr %226, null
  br i1 %227, label %228, label %238

228:                                              ; preds = %223
  %229 = load ptr, ptr %5, align 8, !tbaa !33
  %230 = getelementptr inbounds nuw %struct.SwsInternal, ptr %229, i32 0, i32 138
  %231 = load ptr, ptr %230, align 8, !tbaa !60
  %232 = load ptr, ptr %16, align 8, !tbaa !43
  %233 = getelementptr inbounds [4 x ptr], ptr %15, i64 0, i64 0
  %234 = load i32, ptr %9, align 4, !tbaa !26
  %235 = load ptr, ptr %5, align 8, !tbaa !33
  %236 = getelementptr inbounds nuw %struct.SwsInternal, ptr %235, i32 0, i32 133
  %237 = load ptr, ptr %236, align 16, !tbaa !57
  call void %231(ptr noundef %232, ptr noundef %233, i32 noundef %234, ptr noundef null, ptr noundef %237)
  br label %238

238:                                              ; preds = %228, %223
  br label %239

239:                                              ; preds = %238, %207
  br label %240

240:                                              ; preds = %239, %186
  call void @llvm.lifetime.end.p0(i64 8, ptr %16) #6
  call void @llvm.lifetime.end.p0(i64 32, ptr %15) #6
  call void @llvm.lifetime.end.p0(i64 4, ptr %14) #6
  call void @llvm.lifetime.end.p0(i64 4, ptr %13) #6
  br label %241

241:                                              ; preds = %240
  %242 = load i32, ptr %12, align 4, !tbaa !26
  %243 = add nsw i32 %242, 1
  store i32 %243, ptr %12, align 4, !tbaa !26
  br label %56, !llvm.loop !61

244:                                              ; preds = %56
  %245 = load i32, ptr %8, align 4, !tbaa !26
  call void @llvm.lifetime.end.p0(i64 4, ptr %12) #6
  call void @llvm.lifetime.end.p0(i64 8, ptr %11) #6
  call void @llvm.lifetime.end.p0(i64 8, ptr %10) #6
  call void @llvm.lifetime.end.p0(i64 4, ptr %9) #6
  ret i32 %245
}