; Function Attrs: nounwind uwtable
define internal noundef i32 @lum_convert(ptr noundef %0, ptr noundef readonly captures(none) %1, i32 noundef %2, i32 noundef returned %3) #0 {
  %5 = alloca [4 x ptr], align 16
  %6 = load ptr, ptr %1, align 8, !tbaa !21
  %7 = load i32, ptr %6, align 8, !tbaa !24
  %8 = getelementptr inbounds nuw i8, ptr %1, i64 24
  %9 = load ptr, ptr %8, align 8, !tbaa !10
  %10 = load ptr, ptr %9, align 8, !tbaa !4
  %11 = getelementptr inbounds nuw i8, ptr %1, i64 8
  %12 = load ptr, ptr %11, align 8, !tbaa !22
  %13 = getelementptr inbounds nuw i8, ptr %12, i64 28
  store i32 %2, ptr %13, align 4, !tbaa !25
  %14 = getelementptr inbounds nuw i8, ptr %12, i64 32
  store i32 %3, ptr %14, align 8, !tbaa !29
  %15 = getelementptr inbounds nuw i8, ptr %12, i64 124
  store i32 %2, ptr %15, align 4, !tbaa !25
  %16 = getelementptr inbounds nuw i8, ptr %12, i64 128
  store i32 %3, ptr %16, align 8, !tbaa !29
  %17 = icmp sgt i32 %3, 0
  br i1 %17, label %.lr.ph, label %._crit_edge

.lr.ph:                                           ; preds = %4
  %18 = getelementptr inbounds nuw i8, ptr %5, i64 8
  %19 = getelementptr inbounds nuw i8, ptr %5, i64 16
  %20 = getelementptr inbounds nuw i8, ptr %5, i64 24
  %21 = getelementptr inbounds nuw i8, ptr %0, i64 53032
  %22 = getelementptr inbounds nuw i8, ptr %0, i64 53024
  %23 = getelementptr inbounds nuw i8, ptr %0, i64 53056
  %24 = getelementptr inbounds nuw i8, ptr %0, i64 39552
  %25 = getelementptr inbounds nuw i8, ptr %1, i64 16
  %26 = getelementptr inbounds nuw i8, ptr %0, i64 53040
  %27 = getelementptr inbounds nuw i8, ptr %0, i64 53064
  %28 = sext i32 %2 to i64
  %wide.trip.count = zext nneg i32 %3 to i64
  br label %29

29:                                               ; preds = %.lr.ph, %90
  %indvars.iv = phi i64 [ 0, %.lr.ph ], [ %indvars.iv.next, %90 ]
  %30 = add nsw i64 %indvars.iv, %28
  %31 = load ptr, ptr %1, align 8, !tbaa !21
  %32 = getelementptr inbounds nuw i8, ptr %31, i64 28
  %33 = load i32, ptr %32, align 4, !tbaa !25
  %34 = sext i32 %33 to i64
  %35 = sub nsw i64 %30, %34
  %36 = getelementptr inbounds nuw i8, ptr %31, i64 8
  %37 = load i32, ptr %36, align 8, !tbaa !30
  %38 = trunc nsw i64 %30 to i32
  %39 = ashr i32 %38, %37
  %40 = getelementptr inbounds nuw i8, ptr %31, i64 60
  %41 = load i32, ptr %40, align 4, !tbaa !25
  %42 = sub nsw i32 %39, %41
  call void @llvm.lifetime.start.p0(i64 32, ptr nonnull %5) #6
  %43 = getelementptr inbounds nuw i8, ptr %31, i64 40
  %44 = load ptr, ptr %43, align 8, !tbaa !31
  %45 = getelementptr inbounds ptr, ptr %44, i64 %35
  %46 = load ptr, ptr %45, align 8, !tbaa !32
  store ptr %46, ptr %5, align 16, !tbaa !32
  %47 = getelementptr inbounds nuw i8, ptr %31, i64 72
  %48 = load ptr, ptr %47, align 8, !tbaa !31
  %49 = sext i32 %42 to i64
  %50 = getelementptr inbounds ptr, ptr %48, i64 %49
  %51 = load ptr, ptr %50, align 8, !tbaa !32
  store ptr %51, ptr %18, align 8, !tbaa !32
  %52 = getelementptr inbounds nuw i8, ptr %31, i64 104
  %53 = load ptr, ptr %52, align 8, !tbaa !31
  %54 = getelementptr inbounds ptr, ptr %53, i64 %49
  %55 = load ptr, ptr %54, align 8, !tbaa !32
  store ptr %55, ptr %19, align 16, !tbaa !32
  %56 = getelementptr inbounds nuw i8, ptr %31, i64 136
  %57 = load ptr, ptr %56, align 8, !tbaa !31
  %58 = getelementptr inbounds ptr, ptr %57, i64 %35
  %59 = load ptr, ptr %58, align 8, !tbaa !32
  store ptr %59, ptr %20, align 8, !tbaa !32
  %60 = load ptr, ptr %11, align 8, !tbaa !22
  %61 = getelementptr inbounds nuw i8, ptr %60, i64 40
  %62 = load ptr, ptr %61, align 8, !tbaa !31
  %63 = getelementptr inbounds nuw ptr, ptr %62, i64 %indvars.iv
  %64 = load ptr, ptr %63, align 8, !tbaa !32
  %65 = load ptr, ptr %21, align 8, !tbaa !33
  %.not = icmp eq ptr %65, null
  br i1 %.not, label %68, label %66

66:                                               ; preds = %29
  %67 = load ptr, ptr %22, align 16, !tbaa !47
  call void %65(ptr noundef %64, ptr noundef %46, ptr noundef %51, ptr noundef %55, i32 noundef %7, ptr noundef %10, ptr noundef %67) #6
  br label %72

68:                                               ; preds = %29
  %69 = load ptr, ptr %23, align 16, !tbaa !48
  %.not62 = icmp eq ptr %69, null
  br i1 %.not62, label %72, label %70

70:                                               ; preds = %68
  %71 = load ptr, ptr %22, align 16, !tbaa !47
  call void %69(ptr noundef %64, ptr noundef nonnull %5, i32 noundef %7, ptr noundef nonnull %24, ptr noundef %71) #6
  br label %72

72:                                               ; preds = %68, %70, %66
  %73 = load i32, ptr %25, align 8, !tbaa !20
  %.not63 = icmp eq i32 %73, 0
  br i1 %.not63, label %90, label %74

74:                                               ; preds = %72
  %75 = load ptr, ptr %11, align 8, !tbaa !22
  %76 = getelementptr inbounds nuw i8, ptr %75, i64 136
  %77 = load ptr, ptr %76, align 8, !tbaa !31
  %78 = getelementptr inbounds nuw ptr, ptr %77, i64 %indvars.iv
  %79 = load ptr, ptr %78, align 8, !tbaa !32
  %80 = load ptr, ptr %26, align 16, !tbaa !49
  %.not64 = icmp eq ptr %80, null
  br i1 %.not64, label %86, label %81

81:                                               ; preds = %74
  %82 = load ptr, ptr %20, align 8, !tbaa !32
  %83 = load ptr, ptr %18, align 8, !tbaa !32
  %84 = load ptr, ptr %19, align 16, !tbaa !32
  %85 = load ptr, ptr %22, align 16, !tbaa !47
  call void %80(ptr noundef %79, ptr noundef %82, ptr noundef %83, ptr noundef %84, i32 noundef %7, ptr noundef %10, ptr noundef %85) #6
  br label %90

86:                                               ; preds = %74
  %87 = load ptr, ptr %27, align 8, !tbaa !50
  %.not65 = icmp eq ptr %87, null
  br i1 %.not65, label %90, label %88

88:                                               ; preds = %86
  %89 = load ptr, ptr %22, align 16, !tbaa !47
  call void %87(ptr noundef %79, ptr noundef nonnull %5, i32 noundef %7, ptr noundef null, ptr noundef %89) #6
  br label %90

90:                                               ; preds = %81, %88, %86, %72
  call void @llvm.lifetime.end.p0(i64 32, ptr nonnull %5) #6
  %indvars.iv.next = add nuw nsw i64 %indvars.iv, 1
  %exitcond.not = icmp eq i64 %indvars.iv.next, %wide.trip.count
  br i1 %exitcond.not, label %._crit_edge, label %29, !llvm.loop !51

._crit_edge:                                      ; preds = %90, %4
  ret i32 %3
}